(dp1
S'highscore'
p2
(dp3
S'10'
p4
(S'Kivyator'
p5
I30
tp6
sS'1'
(S'Erik den uovervindelige mester af universet'
p7
I400
tp8
sS'3'
g6
sS'2'
(S'Hej, det er mig igen muthafugga!!'
p9
I280
tp10
sS'5'
g6
sS'4'
g6
sS'7'
g6
sS'6'
g6
sS'9'
g6
sS'8'
g6
ss.